target datalayout = "e-m:e-p270:32:32-p271:32:32-p272:64:64-i64:64-i128:128-f80:128-n8:16:32:64-S128"
target triple = "x86_64-pc-linux-gnu"

%struct.bz_stream = type { ptr, i32, i32, i32, ptr, i32, i32, i32, ptr, ptr, ptr, ptr }
%struct.bzFile = type { ptr, [5000 x i8], i32, i8, %struct.bz_stream, i32, i8 }

; Function Attrs: nounwind uwtable
define ptr @BZ2_bzReadOpen(ptr noundef %0, ptr noundef %1, i32 noundef %2, i32 noundef %3, ptr noundef %4, i32 noundef %5) #0 {
  %7 = alloca ptr, align 8
  %8 = alloca ptr, align 8
  %9 = alloca ptr, align 8
  %10 = alloca i32, align 4
  %11 = alloca i32, align 4
  %12 = alloca ptr, align 8
  %13 = alloca i32, align 4
  %14 = alloca ptr, align 8
  %15 = alloca i32, align 4
  store ptr %0, ptr %8, align 8
  store ptr %1, ptr %9, align 8
  store i32 %2, ptr %10, align 4
  store i32 %3, ptr %11, align 4
  store ptr %4, ptr %12, align 8
  store i32 %5, ptr %13, align 4
  store ptr null, ptr %14, align 8
  %16 = load ptr, ptr %8, align 8
  %17 = icmp ne ptr %16, null
  br i1 %17, label %18, label %20

18:                                               ; preds = %6
  %19 = load ptr, ptr %8, align 8
  store i32 0, ptr %19, align 4
  br label %20

20:                                               ; preds = %18, %6
  %21 = load ptr, ptr %14, align 8
  %22 = icmp ne ptr %21, null
  br i1 %22, label %23, label %26

23:                                               ; preds = %20
  %24 = load ptr, ptr %14, align 8
  %25 = getelementptr inbounds %struct.bzFile, ptr %24, i32 0, i32 5
  store i32 0, ptr %25, align 8
  br label %26

26:                                               ; preds = %23, %20
  %27 = load ptr, ptr %9, align 8
  %28 = icmp eq ptr %27, null
  br i1 %28, label %56, label %29

29:                                               ; preds = %26
  %30 = load i32, ptr %11, align 4
  %31 = icmp ne i32 %30, 0
  br i1 %31, label %32, label %35

32:                                               ; preds = %29
  %33 = load i32, ptr %11, align 4
  %34 = icmp ne i32 %33, 1
  br i1 %34, label %56, label %35

35:                                               ; preds = %32, %29
  %36 = load i32, ptr %10, align 4
  %37 = icmp slt i32 %36, 0
  br i1 %37, label %56, label %38

38:                                               ; preds = %35
  %39 = load i32, ptr %10, align 4
  %40 = icmp sgt i32 %39, 4
  br i1 %40, label %56, label %41

41:                                               ; preds = %38
  %42 = load ptr, ptr %12, align 8
  %43 = icmp eq ptr %42, null
  br i1 %43, label %44, label %47

44:                                               ; preds = %41
  %45 = load i32, ptr %13, align 4
  %46 = icmp ne i32 %45, 0
  br i1 %46, label %56, label %47

47:                                               ; preds = %44, %41
  %48 = load ptr, ptr %12, align 8
  %49 = icmp ne ptr %48, null
  br i1 %49, label %50, label %68

50:                                               ; preds = %47
  %51 = load i32, ptr %13, align 4
  %52 = icmp slt i32 %51, 0
  br i1 %52, label %56, label %53

53:                                               ; preds = %50
  %54 = load i32, ptr %13, align 4
  %55 = icmp sgt i32 %54, 5000
  br i1 %55, label %56, label %68

56:                                               ; preds = %53, %50, %44, %38, %35, %32, %26
  %57 = load ptr, ptr %8, align 8
  %58 = icmp ne ptr %57, null
  br i1 %58, label %59, label %61

59:                                               ; preds = %56
  %60 = load ptr, ptr %8, align 8
  store i32 -2, ptr %60, align 4
  br label %61

61:                                               ; preds = %59, %56
  %62 = load ptr, ptr %14, align 8
  %63 = icmp ne ptr %62, null
  br i1 %63, label %64, label %67

64:                                               ; preds = %61
  %65 = load ptr, ptr %14, align 8
  %66 = getelementptr inbounds %struct.bzFile, ptr %65, i32 0, i32 5
  store i32 -2, ptr %66, align 8
  br label %67

67:                                               ; preds = %64, %61
  store ptr null, ptr %7, align 8
  br label %190

68:                                               ; preds = %53, %47
  %69 = load ptr, ptr %9, align 8
  %70 = call i32 @ferror(ptr noundef %69) #8
  %71 = icmp ne i32 %70, 0
  br i1 %71, label %72, label %84

72:                                               ; preds = %68
  %73 = load ptr, ptr %8, align 8
  %74 = icmp ne ptr %73, null
  br i1 %74, label %75, label %77

75:                                               ; preds = %72
  %76 = load ptr, ptr %8, align 8
  store i32 -6, ptr %76, align 4
  br label %77

77:                                               ; preds = %75, %72
  %78 = load ptr, ptr %14, align 8
  %79 = icmp ne ptr %78, null
  br i1 %79, label %80, label %83

80:                                               ; preds = %77
  %81 = load ptr, ptr %14, align 8
  %82 = getelementptr inbounds %struct.bzFile, ptr %81, i32 0, i32 5
  store i32 -6, ptr %82, align 8
  br label %83

83:                                               ; preds = %80, %77
  store ptr null, ptr %7, align 8
  br label %190

84:                                               ; preds = %68
  %85 = call noalias ptr @malloc(i64 noundef 5104) #10
  store ptr %85, ptr %14, align 8
  %86 = load ptr, ptr %14, align 8
  %87 = icmp eq ptr %86, null
  br i1 %87, label %88, label %100

88:                                               ; preds = %84
  %89 = load ptr, ptr %8, align 8
  %90 = icmp ne ptr %89, null
  br i1 %90, label %91, label %93

91:                                               ; preds = %88
  %92 = load ptr, ptr %8, align 8
  store i32 -3, ptr %92, align 4
  br label %93

93:                                               ; preds = %91, %88
  %94 = load ptr, ptr %14, align 8
  %95 = icmp ne ptr %94, null
  br i1 %95, label %96, label %99

96:                                               ; preds = %93
  %97 = load ptr, ptr %14, align 8
  %98 = getelementptr inbounds %struct.bzFile, ptr %97, i32 0, i32 5
  store i32 -3, ptr %98, align 8
  br label %99

99:                                               ; preds = %96, %93
  store ptr null, ptr %7, align 8
  br label %190

100:                                              ; preds = %84
  %101 = load ptr, ptr %8, align 8
  %102 = icmp ne ptr %101, null
  br i1 %102, label %103, label %105

103:                                              ; preds = %100
  %104 = load ptr, ptr %8, align 8
  store i32 0, ptr %104, align 4
  br label %105

105:                                              ; preds = %103, %100
  %106 = load ptr, ptr %14, align 8
  %107 = icmp ne ptr %106, null
  br i1 %107, label %108, label %111

108:                                              ; preds = %105
  %109 = load ptr, ptr %14, align 8
  %110 = getelementptr inbounds %struct.bzFile, ptr %109, i32 0, i32 5
  store i32 0, ptr %110, align 8
  br label %111

111:                                              ; preds = %108, %105
  %112 = load ptr, ptr %14, align 8
  %113 = getelementptr inbounds %struct.bzFile, ptr %112, i32 0, i32 6
  store i8 0, ptr %113, align 4
  %114 = load ptr, ptr %9, align 8
  %115 = load ptr, ptr %14, align 8
  %116 = getelementptr inbounds %struct.bzFile, ptr %115, i32 0, i32 0
  store ptr %114, ptr %116, align 8
  %117 = load ptr, ptr %14, align 8
  %118 = getelementptr inbounds %struct.bzFile, ptr %117, i32 0, i32 2
  store i32 0, ptr %118, align 8
  %119 = load ptr, ptr %14, align 8
  %120 = getelementptr inbounds %struct.bzFile, ptr %119, i32 0, i32 3
  store i8 0, ptr %120, align 4
  %121 = load ptr, ptr %14, align 8
  %122 = getelementptr inbounds %struct.bzFile, ptr %121, i32 0, i32 4
  %123 = getelementptr inbounds %struct.bz_stream, ptr %122, i32 0, i32 9
  store ptr null, ptr %123, align 8
  %124 = load ptr, ptr %14, align 8
  %125 = getelementptr inbounds %struct.bzFile, ptr %124, i32 0, i32 4
  %126 = getelementptr inbounds %struct.bz_stream, ptr %125, i32 0, i32 10
  store ptr null, ptr %126, align 8
  %127 = load ptr, ptr %14, align 8
  %128 = getelementptr inbounds %struct.bzFile, ptr %127, i32 0, i32 4
  %129 = getelementptr inbounds %struct.bz_stream, ptr %128, i32 0, i32 11
  store ptr null, ptr %129, align 8
  br label %130

130:                                              ; preds = %133, %111
  %131 = load i32, ptr %13, align 4
  %132 = icmp sgt i32 %131, 0
  br i1 %132, label %133, label %151

133:                                              ; preds = %130
  %134 = load ptr, ptr %12, align 8
  %135 = load i8, ptr %134, align 1
  %136 = load ptr, ptr %14, align 8
  %137 = getelementptr inbounds %struct.bzFile, ptr %136, i32 0, i32 1
  %138 = load ptr, ptr %14, align 8
  %139 = getelementptr inbounds %struct.bzFile, ptr %138, i32 0, i32 2
  %140 = load i32, ptr %139, align 8
  %141 = sext i32 %140 to i64
  %142 = getelementptr inbounds [5000 x i8], ptr %137, i64 0, i64 %141
  store i8 %135, ptr %142, align 1
  %143 = load ptr, ptr %14, align 8
  %144 = getelementptr inbounds %struct.bzFile, ptr %143, i32 0, i32 2
  %145 = load i32, ptr %144, align 8
  %146 = add nsw i32 %145, 1
  store i32 %146, ptr %144, align 8
  %147 = load ptr, ptr %12, align 8
  %148 = getelementptr inbounds i8, ptr %147, i64 1
  store ptr %148, ptr %12, align 8
  %149 = load i32, ptr %13, align 4
  %150 = add nsw i32 %149, -1
  store i32 %150, ptr %13, align 4
  br label %130, !llvm.loop !7

151:                                              ; preds = %130
  %152 = load ptr, ptr %14, align 8
  %153 = getelementptr inbounds %struct.bzFile, ptr %152, i32 0, i32 4
  %154 = load i32, ptr %10, align 4
  %155 = load i32, ptr %11, align 4
  %156 = call i32 @BZ2_bzDecompressInit(ptr noundef %153, i32 noundef %154, i32 noundef %155)
  store i32 %156, ptr %15, align 4
  %157 = load i32, ptr %15, align 4
  %158 = icmp ne i32 %157, 0
  br i1 %158, label %159, label %174

159:                                              ; preds = %151
  %160 = load ptr, ptr %8, align 8
  %161 = icmp ne ptr %160, null
  br i1 %161, label %162, label %165

162:                                              ; preds = %159
  %163 = load i32, ptr %15, align 4
  %164 = load ptr, ptr %8, align 8
  store i32 %163, ptr %164, align 4
  br label %165

165:                                              ; preds = %162, %159
  %166 = load ptr, ptr %14, align 8
  %167 = icmp ne ptr %166, null
  br i1 %167, label %168, label %172

168:                                              ; preds = %165
  %169 = load i32, ptr %15, align 4
  %170 = load ptr, ptr %14, align 8
  %171 = getelementptr inbounds %struct.bzFile, ptr %170, i32 0, i32 5
  store i32 %169, ptr %171, align 8
  br label %172

172:                                              ; preds = %168, %165
  %173 = load ptr, ptr %14, align 8
  call void @free(ptr noundef %173) #8
  store ptr null, ptr %7, align 8
  br label %190

174:                                              ; preds = %151
  %175 = load ptr, ptr %14, align 8
  %176 = getelementptr inbounds %struct.bzFile, ptr %175, i32 0, i32 2
  %177 = load i32, ptr %176, align 8
  %178 = load ptr, ptr %14, align 8
  %179 = getelementptr inbounds %struct.bzFile, ptr %178, i32 0, i32 4
  %180 = getelementptr inbounds %struct.bz_stream, ptr %179, i32 0, i32 1
  store i32 %177, ptr %180, align 8
  %181 = load ptr, ptr %14, align 8
  %182 = getelementptr inbounds %struct.bzFile, ptr %181, i32 0, i32 1
  %183 = getelementptr inbounds [5000 x i8], ptr %182, i64 0, i64 0
  %184 = load ptr, ptr %14, align 8
  %185 = getelementptr inbounds %struct.bzFile, ptr %184, i32 0, i32 4
  %186 = getelementptr inbounds %struct.bz_stream, ptr %185, i32 0, i32 0
  store ptr %183, ptr %186, align 8
  %187 = load ptr, ptr %14, align 8
  %188 = getelementptr inbounds %struct.bzFile, ptr %187, i32 0, i32 6
  store i8 1, ptr %188, align 4
  %189 = load ptr, ptr %14, align 8
  store ptr %189, ptr %7, align 8
  br label %190

190:                                              ; preds = %174, %172, %99, %83, %67
  %191 = load ptr, ptr %7, align 8
  ret ptr %191
}