; Function Attrs: nounwind uwtable
define noundef ptr @BZ2_bzReadOpen(ptr noundef writeonly %0, ptr noundef %1, i32 noundef %2, i32 noundef %3, ptr noundef readonly %4, i32 noundef %5) local_unnamed_addr #4 {
  %.not = icmp eq ptr %0, null
  br i1 %.not, label %8, label %7

7:                                                ; preds = %6
  store i32 0, ptr %0, align 4
  br label %8

8:                                                ; preds = %6, %7
  %9 = icmp eq ptr %1, null
  br i1 %9, label %16, label %10

10:                                               ; preds = %8
  %or.cond = icmp ugt i32 %3, 1
  %11 = icmp ugt i32 %2, 4
  %or.cond5 = or i1 %11, %or.cond
  br i1 %or.cond5, label %16, label %12

12:                                               ; preds = %10
  %13 = icmp eq ptr %4, null
  %14 = icmp ne i32 %5, 0
  %or.cond7 = and i1 %13, %14
  br i1 %or.cond7, label %16, label %15

15:                                               ; preds = %12
  %.not81 = icmp ne ptr %4, null
  %or.cond9 = icmp ugt i32 %5, 5000
  %or.cond84 = and i1 %.not81, %or.cond9
  br i1 %or.cond84, label %16, label %18

16:                                               ; preds = %15, %12, %10, %8
  br i1 %.not, label %56, label %17

17:                                               ; preds = %16
  store i32 -2, ptr %0, align 4
  br label %56

18:                                               ; preds = %15
  %19 = tail call i32 @ferror(ptr noundef nonnull %1) #22
  %.not82 = icmp eq i32 %19, 0
  br i1 %.not82, label %22, label %20

20:                                               ; preds = %18
  br i1 %.not, label %56, label %21

21:                                               ; preds = %20
  store i32 -6, ptr %0, align 4
  br label %56

22:                                               ; preds = %18
  %23 = tail call noalias dereferenceable_or_null(5104) ptr @malloc(i64 noundef 5104) #23
  %24 = icmp eq ptr %23, null
  br i1 %24, label %25, label %27

25:                                               ; preds = %22
  br i1 %.not, label %56, label %26

26:                                               ; preds = %25
  store i32 -3, ptr %0, align 4
  br label %56

27:                                               ; preds = %22
  br i1 %.not, label %29, label %28

28:                                               ; preds = %27
  store i32 0, ptr %0, align 4
  br label %29

29:                                               ; preds = %27, %28
  %30 = getelementptr inbounds nuw i8, ptr %23, i64 5096
  store i32 0, ptr %30, align 8
  %31 = getelementptr inbounds nuw i8, ptr %23, i64 5100
  store i8 0, ptr %31, align 4
  store ptr %1, ptr %23, align 8
  %32 = getelementptr inbounds nuw i8, ptr %23, i64 5008
  store i32 0, ptr %32, align 8
  %33 = getelementptr inbounds nuw i8, ptr %23, i64 5012
  store i8 0, ptr %33, align 4
  %34 = getelementptr inbounds nuw i8, ptr %23, i64 5016
  %35 = getelementptr inbounds nuw i8, ptr %23, i64 5072
  %36 = icmp sgt i32 %5, 0
  tail call void @llvm.memset.p0.i64(ptr noundef nonnull align 8 dereferenceable(24) %35, i8 0, i64 24, i1 false)
  br i1 %36, label %.lr.ph, label %._crit_edge

.lr.ph:                                           ; preds = %29
  %37 = getelementptr inbounds nuw i8, ptr %23, i64 8
  br label %38

38:                                               ; preds = %.lr.ph, %38
  %39 = phi i32 [ 0, %.lr.ph ], [ %44, %38 ]
  %.07386 = phi i32 [ %5, %.lr.ph ], [ %46, %38 ]
  %.07485 = phi ptr [ %4, %.lr.ph ], [ %45, %38 ]
  %40 = load i8, ptr %.07485, align 1
  %41 = sext i32 %39 to i64
  %42 = getelementptr inbounds [5000 x i8], ptr %37, i64 0, i64 %41
  store i8 %40, ptr %42, align 1
  %43 = load i32, ptr %32, align 8
  %44 = add nsw i32 %43, 1
  store i32 %44, ptr %32, align 8
  %45 = getelementptr inbounds nuw i8, ptr %.07485, i64 1
  %46 = add nsw i32 %.07386, -1
  %47 = icmp samesign ugt i32 %.07386, 1
  br i1 %47, label %38, label %._crit_edge, !llvm.loop !6

._crit_edge:                                      ; preds = %38, %29
  %48 = tail call i32 @BZ2_bzDecompressInit(ptr noundef nonnull %34, i32 noundef %2, i32 noundef %3)
  %.not83 = icmp eq i32 %48, 0
  br i1 %.not83, label %52, label %49

49:                                               ; preds = %._crit_edge
  br i1 %.not, label %51, label %50

50:                                               ; preds = %49
  store i32 %48, ptr %0, align 4
  br label %51

51:                                               ; preds = %49, %50
  tail call void @free(ptr noundef nonnull %23) #22
  br label %56

52:                                               ; preds = %._crit_edge
  %53 = load i32, ptr %32, align 8
  %54 = getelementptr inbounds nuw i8, ptr %23, i64 5024
  store i32 %53, ptr %54, align 8
  %55 = getelementptr inbounds nuw i8, ptr %23, i64 8
  store ptr %55, ptr %34, align 8
  store i8 1, ptr %31, align 4
  br label %56

56:                                               ; preds = %26, %25, %21, %20, %17, %16, %52, %51
  %.0 = phi ptr [ null, %51 ], [ %23, %52 ], [ null, %16 ], [ null, %17 ], [ null, %20 ], [ null, %21 ], [ null, %25 ], [ null, %26 ]
  ret ptr %.0
}